ARM GAS  C:\Users\gianm\AppData\Local\Temp\cc9jVcXc.s 			page 1


   1              		.syntax unified
   2              		.cpu cortex-m3
   3              		.fpu softvfp
   4              		.eabi_attribute 20, 1
   5              		.eabi_attribute 21, 1
   6              		.eabi_attribute 23, 3
   7              		.eabi_attribute 24, 1
   8              		.eabi_attribute 25, 1
   9              		.eabi_attribute 26, 1
  10              		.eabi_attribute 30, 1
  11              		.eabi_attribute 34, 1
  12              		.eabi_attribute 18, 4
  13              		.thumb
  14              		.syntax unified
  15              		.file	"interrupt_routine.c"
  16              		.text
  17              	.Ltext0:
  18              		.cfi_sections	.debug_frame
  19              		.section	.text.Custom_ISR_ADC_inter,"ax",%progbits
  20              		.align	2
  21              		.global	Custom_ISR_ADC_inter
  22              		.thumb
  23              		.thumb_func
  24              		.type	Custom_ISR_ADC_inter, %function
  25              	Custom_ISR_ADC_inter:
  26              	.LFB64:
  27              		.file 1 "interrupt_routine.c"
   1:interrupt_routine.c **** /* ========================================
   2:interrupt_routine.c ****  *
   3:interrupt_routine.c ****  * Copyright YOUR COMPANY, THE YEAR
   4:interrupt_routine.c ****  * All Rights Reserved
   5:interrupt_routine.c ****  * UNPUBLISHED, LICENSED SOFTWARE.
   6:interrupt_routine.c ****  *
   7:interrupt_routine.c ****  * CONFIDENTIAL AND PROPRIETARY INFORMATION
   8:interrupt_routine.c ****  * WHICH IS THE PROPERTY OF your company.
   9:interrupt_routine.c ****  *
  10:interrupt_routine.c ****  * ========================================
  11:interrupt_routine.c **** */
  12:interrupt_routine.c **** #include "interrupt_routine.h"
  13:interrupt_routine.c **** #include "project.h"
  14:interrupt_routine.c **** 
  15:interrupt_routine.c **** 
  16:interrupt_routine.c **** int32 Value_Digit,Value_mV;
  17:interrupt_routine.c **** char statusrx;
  18:interrupt_routine.c **** 
  19:interrupt_routine.c **** 
  20:interrupt_routine.c **** 
  21:interrupt_routine.c **** 
  22:interrupt_routine.c **** 
  23:interrupt_routine.c **** CY_ISR(Custom_ISR_ADC_inter){
  28              		.loc 1 23 0
  29              		.cfi_startproc
  30              		@ args = 0, pretend = 0, frame = 0
  31              		@ frame_needed = 0, uses_anonymous_args = 0
  32 0000 08B5     		push	{r3, lr}
  33              		.cfi_def_cfa_offset 8
  34              		.cfi_offset 3, -8
ARM GAS  C:\Users\gianm\AppData\Local\Temp\cc9jVcXc.s 			page 2


  35              		.cfi_offset 14, -4
  24:interrupt_routine.c ****      //Reset Timer Register For ISR
  25:interrupt_routine.c ****      Timer_ADC_ReadStatusRegister();
  36              		.loc 1 25 0
  37 0002 FFF7FEFF 		bl	Timer_ADC_ReadStatusRegister
  38              	.LVL0:
  26:interrupt_routine.c ****      //Read vhe value of the Potentiometer
  27:interrupt_routine.c ****      Value_Digit=ADC_Pot_Read32();//vlues in digits
  39              		.loc 1 27 0
  40 0006 FFF7FEFF 		bl	ADC_Pot_Read32
  41              	.LVL1:
  42 000a 0F4B     		ldr	r3, .L5
  43 000c 1860     		str	r0, [r3]
  28:interrupt_routine.c ****      //constrain the value_digit to the + range
  29:interrupt_routine.c ****      if(Value_Digit<0) Value_Digit=0;
  44              		.loc 1 29 0
  45 000e 0028     		cmp	r0, #0
  46 0010 01DA     		bge	.L2
  47              		.loc 1 29 0 is_stmt 0 discriminator 1
  48 0012 0022     		movs	r2, #0
  49 0014 1A60     		str	r2, [r3]
  50              	.L2:
  30:interrupt_routine.c ****      if(Value_Digit>65535) Value_Digit=65535;
  51              		.loc 1 30 0 is_stmt 1
  52 0016 0C4B     		ldr	r3, .L5
  53 0018 1B68     		ldr	r3, [r3]
  54 001a B3F5803F 		cmp	r3, #65536
  55 001e 03DB     		blt	.L3
  56              		.loc 1 30 0 is_stmt 0 discriminator 1
  57 0020 4FF6FF72 		movw	r2, #65535
  58 0024 084B     		ldr	r3, .L5
  59 0026 1A60     		str	r2, [r3]
  60              	.L3:
  31:interrupt_routine.c ****     
  32:interrupt_routine.c ****         
  33:interrupt_routine.c ****      Value_mV=ADC_Pot_CountsTo_mVolts(Value_Digit);//Vdd=5V
  61              		.loc 1 33 0 is_stmt 1
  62 0028 074B     		ldr	r3, .L5
  63 002a 1868     		ldr	r0, [r3]
  64 002c FFF7FEFF 		bl	ADC_Pot_CountsTo_mVolts
  65              	.LVL2:
  66 0030 0246     		mov	r2, r0
  67 0032 064B     		ldr	r3, .L5+4
  68 0034 1860     		str	r0, [r3]
  34:interrupt_routine.c ****      //Put in DataBuffer the result of convertion   
  35:interrupt_routine.c ****      sprintf(DataBuffer, "Sample: %ld mV\r\n",Value_mV);
  69              		.loc 1 35 0
  70 0036 0649     		ldr	r1, .L5+8
  71 0038 0648     		ldr	r0, .L5+12
  72 003a FFF7FEFF 		bl	sprintf
  73              	.LVL3:
  36:interrupt_routine.c ****     //set value of packet received to 1
  37:interrupt_routine.c ****      PacketReadyFlag=1;
  74              		.loc 1 37 0
  75 003e 0122     		movs	r2, #1
  76 0040 054B     		ldr	r3, .L5+16
  77 0042 1A70     		strb	r2, [r3]
ARM GAS  C:\Users\gianm\AppData\Local\Temp\cc9jVcXc.s 			page 3


  78 0044 08BD     		pop	{r3, pc}
  79              	.L6:
  80 0046 00BF     		.align	2
  81              	.L5:
  82 0048 00000000 		.word	Value_Digit
  83 004c 00000000 		.word	Value_mV
  84 0050 00000000 		.word	.LC0
  85 0054 00000000 		.word	DataBuffer
  86 0058 00000000 		.word	PacketReadyFlag
  87              		.cfi_endproc
  88              	.LFE64:
  89              		.size	Custom_ISR_ADC_inter, .-Custom_ISR_ADC_inter
  90              		.section	.text.Custom_ISR_RX_inter,"ax",%progbits
  91              		.align	2
  92              		.global	Custom_ISR_RX_inter
  93              		.thumb
  94              		.thumb_func
  95              		.type	Custom_ISR_RX_inter, %function
  96              	Custom_ISR_RX_inter:
  97              	.LFB65:
  38:interrupt_routine.c ****      
  39:interrupt_routine.c ****  }
  40:interrupt_routine.c **** 
  41:interrupt_routine.c **** CY_ISR(Custom_ISR_RX_inter){
  98              		.loc 1 41 0
  99              		.cfi_startproc
 100              		@ args = 0, pretend = 0, frame = 0
 101              		@ frame_needed = 0, uses_anonymous_args = 0
 102 0000 08B5     		push	{r3, lr}
 103              		.cfi_def_cfa_offset 8
 104              		.cfi_offset 3, -8
 105              		.cfi_offset 14, -4
  42:interrupt_routine.c ****     statusrx=UART_BlueT_GetChar();
 106              		.loc 1 42 0
 107 0002 FFF7FEFF 		bl	UART_BlueT_GetChar
 108              	.LVL4:
 109 0006 034B     		ldr	r3, .L10
 110 0008 1870     		strb	r0, [r3]
  43:interrupt_routine.c ****     if(statusrx){
 111              		.loc 1 43 0
 112 000a 10B1     		cbz	r0, .L7
  44:interrupt_routine.c ****         RxFlag_Start=1;
 113              		.loc 1 44 0
 114 000c 0122     		movs	r2, #1
 115 000e 024B     		ldr	r3, .L10+4
 116 0010 1A70     		strb	r2, [r3]
 117              	.L7:
 118 0012 08BD     		pop	{r3, pc}
 119              	.L11:
 120              		.align	2
 121              	.L10:
 122 0014 00000000 		.word	statusrx
 123 0018 00000000 		.word	RxFlag_Start
 124              		.cfi_endproc
 125              	.LFE65:
 126              		.size	Custom_ISR_RX_inter, .-Custom_ISR_RX_inter
 127              		.comm	statusrx,1,1
ARM GAS  C:\Users\gianm\AppData\Local\Temp\cc9jVcXc.s 			page 4


 128              		.comm	Value_mV,4,4
 129              		.comm	Value_Digit,4,4
 130              		.comm	RxFlag_Start,1,1
 131              		.comm	PacketReadyFlag,1,1
 132              		.comm	DataBuffer,32,4
 133              		.section	.rodata.str1.4,"aMS",%progbits,1
 134              		.align	2
 135              	.LC0:
 136 0000 53616D70 		.ascii	"Sample: %ld mV\015\012\000"
 136      6C653A20 
 136      256C6420 
 136      6D560D0A 
 136      00
 137              		.text
 138              	.Letext0:
 139              		.file 2 "c:\\program files (x86)\\cypress\\psoc creator\\4.4\\psoc creator\\import\\gnu\\arm\\5.4.
 140              		.file 3 "c:\\program files (x86)\\cypress\\psoc creator\\4.4\\psoc creator\\import\\gnu\\arm\\5.4.
 141              		.file 4 "Generated_Source\\PSoC5/cytypes.h"
 142              		.file 5 "interrupt_routine.h"
 143              		.file 6 "Generated_Source\\PSoC5/core_cm3.h"
 144              		.file 7 "Generated_Source\\PSoC5/Timer_ADC.h"
 145              		.file 8 "Generated_Source\\PSoC5/ADC_Pot.h"
 146              		.file 9 "c:\\program files (x86)\\cypress\\psoc creator\\4.4\\psoc creator\\import\\gnu\\arm\\5.4.
 147              		.file 10 "Generated_Source\\PSoC5/UART_BlueT.h"