ARM GAS  C:\Users\gianm\AppData\Local\Temp\ccEMIfXj.s 			page 1


   1              		.syntax unified
   2              		.cpu cortex-m3
   3              		.fpu softvfp
   4              		.eabi_attribute 20, 1
   5              		.eabi_attribute 21, 1
   6              		.eabi_attribute 23, 3
   7              		.eabi_attribute 24, 1
   8              		.eabi_attribute 25, 1
   9              		.eabi_attribute 26, 1
  10              		.eabi_attribute 30, 1
  11              		.eabi_attribute 34, 1
  12              		.eabi_attribute 18, 4
  13              		.thumb
  14              		.syntax unified
  15              		.file	"main.c"
  16              		.text
  17              	.Ltext0:
  18              		.cfi_sections	.debug_frame
  19              		.section	.text.SendData,"ax",%progbits
  20              		.align	2
  21              		.global	SendData
  22              		.thumb
  23              		.thumb_func
  24              		.type	SendData, %function
  25              	SendData:
  26              	.LFB64:
  27              		.file 1 "main.c"
   1:main.c        **** /* ========================================
   2:main.c        ****  *
   3:main.c        ****  * Copyright YOUR COMPANY, THE YEAR
   4:main.c        ****  * All Rights Reserved
   5:main.c        ****  * UNPUBLISHED, LICENSED SOFTWARE.
   6:main.c        ****  *
   7:main.c        ****  * CONFIDENTIAL AND PROPRIETARY INFORMATION
   8:main.c        ****  * WHICH IS THE PROPERTY OF your company.
   9:main.c        ****  *
  10:main.c        ****  * ========================================
  11:main.c        **** */
  12:main.c        **** #include "project.h"
  13:main.c        **** #include "stdio.h"
  14:main.c        **** #include "interrupt_routine.h"
  15:main.c        **** 
  16:main.c        **** 
  17:main.c        **** 
  18:main.c        **** void SendData(){
  28              		.loc 1 18 0
  29              		.cfi_startproc
  30              		@ args = 0, pretend = 0, frame = 0
  31              		@ frame_needed = 0, uses_anonymous_args = 0
  32 0000 08B5     		push	{r3, lr}
  33              		.cfi_def_cfa_offset 8
  34              		.cfi_offset 3, -8
  35              		.cfi_offset 14, -4
  19:main.c        ****         if(PacketReadyFlag==1){
  36              		.loc 1 19 0
  37 0002 064B     		ldr	r3, .L4
  38 0004 1B78     		ldrb	r3, [r3]	@ zero_extendqisi2
ARM GAS  C:\Users\gianm\AppData\Local\Temp\ccEMIfXj.s 			page 2


  39 0006 DBB2     		uxtb	r3, r3
  40 0008 012B     		cmp	r3, #1
  41 000a 05D1     		bne	.L1
  20:main.c        ****         //instert function for usb module
  21:main.c        ****         // UART_BlueT_PutString("PacketreadyFlag=1\r\n");
  22:main.c        ****         UART_BlueT_PutString(DataBuffer);
  42              		.loc 1 22 0
  43 000c 0448     		ldr	r0, .L4+4
  44 000e FFF7FEFF 		bl	UART_BlueT_PutString
  45              	.LVL0:
  23:main.c        ****         //reset the value Packet read to 0 
  24:main.c        ****         PacketReadyFlag=0;
  46              		.loc 1 24 0
  47 0012 0022     		movs	r2, #0
  48 0014 014B     		ldr	r3, .L4
  49 0016 1A70     		strb	r2, [r3]
  50              	.L1:
  51 0018 08BD     		pop	{r3, pc}
  52              	.L5:
  53 001a 00BF     		.align	2
  54              	.L4:
  55 001c 00000000 		.word	PacketReadyFlag
  56 0020 00000000 		.word	DataBuffer
  57              		.cfi_endproc
  58              	.LFE64:
  59              		.size	SendData, .-SendData
  60              		.section	.text.main,"ax",%progbits
  61              		.align	2
  62              		.global	main
  63              		.thumb
  64              		.thumb_func
  65              		.type	main, %function
  66              	main:
  67              	.LFB65:
  25:main.c        ****         }
  26:main.c        ****     }
  27:main.c        **** 
  28:main.c        **** 
  29:main.c        **** 
  30:main.c        **** 
  31:main.c        **** int main(void)
  32:main.c        **** {
  68              		.loc 1 32 0
  69              		.cfi_startproc
  70              		@ Volatile: function does not return.
  71              		@ args = 0, pretend = 0, frame = 0
  72              		@ frame_needed = 0, uses_anonymous_args = 0
  73 0000 08B5     		push	{r3, lr}
  74              		.cfi_def_cfa_offset 8
  75              		.cfi_offset 3, -8
  76              		.cfi_offset 14, -4
  33:main.c        ****     CyGlobalIntEnable; /* Enable global interrupts. */
  77              		.loc 1 33 0
  78              		.syntax unified
  79              	@ 33 "main.c" 1
  80 0002 62B6     		CPSIE   i
  81              	@ 0 "" 2
ARM GAS  C:\Users\gianm\AppData\Local\Temp\ccEMIfXj.s 			page 3


  34:main.c        ****     Timer_ADC_Enable();//Enable timer
  82              		.loc 1 34 0
  83              		.thumb
  84              		.syntax unified
  85 0004 FFF7FEFF 		bl	Timer_ADC_Enable
  86              	.LVL1:
  35:main.c        ****     Timer_ADC_Start();//start timer(porcodio)
  87              		.loc 1 35 0
  88 0008 FFF7FEFF 		bl	Timer_ADC_Start
  89              	.LVL2:
  36:main.c        ****     ADC_Pot_Start();//Start ADC
  90              		.loc 1 36 0
  91 000c FFF7FEFF 		bl	ADC_Pot_Start
  92              	.LVL3:
  37:main.c        ****     isr_TimerADC_inter_StartEx(Custom_ISR_ADC_inter);
  93              		.loc 1 37 0
  94 0010 1248     		ldr	r0, .L12
  95 0012 FFF7FEFF 		bl	isr_TimerADC_inter_StartEx
  96              	.LVL4:
  38:main.c        ****     isr_RX_inter_StartEx(Custom_ISR_RX_inter);//start esecution interrupt
  97              		.loc 1 38 0
  98 0016 1248     		ldr	r0, .L12+4
  99 0018 FFF7FEFF 		bl	isr_RX_inter_StartEx
 100              	.LVL5:
  39:main.c        ****     PacketReadyFlag=0;//set flag packet to 0
 101              		.loc 1 39 0
 102 001c 0022     		movs	r2, #0
 103 001e 114B     		ldr	r3, .L12+8
 104 0020 1A70     		strb	r2, [r3]
  40:main.c        ****     ADC_Pot_StartConvert();//start convertion of the adc
 105              		.loc 1 40 0
 106 0022 FFF7FEFF 		bl	ADC_Pot_StartConvert
 107              	.LVL6:
  41:main.c        ****     UART_BlueT_Start();//start the UART module
 108              		.loc 1 41 0
 109 0026 FFF7FEFF 		bl	UART_BlueT_Start
 110              	.LVL7:
  42:main.c        ****     
  43:main.c        ****     UART_BlueT_PutString("UART BlueThoot Module HC-06\r\n");//init string 
 111              		.loc 1 43 0
 112 002a 0F48     		ldr	r0, .L12+12
 113 002c FFF7FEFF 		bl	UART_BlueT_PutString
 114              	.LVL8:
 115              	.L10:
  44:main.c        **** 
  45:main.c        ****     /* Place your initialization/startup code here (e.g. MyInst_Start()) */
  46:main.c        **** 
  47:main.c        ****     for(;;)
  48:main.c        ****     {
  49:main.c        ****         //control Rx to associate application
  50:main.c        ****       
  51:main.c        ****     
  52:main.c        ****        if(RxFlag_Start==0){ UART_BlueT_PutString("READY\r\n");
 116              		.loc 1 52 0
 117 0030 0E4B     		ldr	r3, .L12+16
 118 0032 1B78     		ldrb	r3, [r3]	@ zero_extendqisi2
 119 0034 13F0FF0F 		tst	r3, #255
ARM GAS  C:\Users\gianm\AppData\Local\Temp\ccEMIfXj.s 			page 4


 120 0038 09D1     		bne	.L8
 121              		.loc 1 52 0 is_stmt 0 discriminator 1
 122 003a 0D48     		ldr	r0, .L12+20
 123 003c FFF7FEFF 		bl	UART_BlueT_PutString
 124              	.LVL9:
  53:main.c        ****                                
  54:main.c        ****                                 CyDelay(1000);}
 125              		.loc 1 54 0 is_stmt 1 discriminator 1
 126 0040 4FF47A70 		mov	r0, #1000
 127 0044 FFF7FEFF 		bl	CyDelay
 128              	.LVL10:
 129 0048 01E0     		b	.L8
 130              	.L9:
  55:main.c        ****        
  56:main.c        ****         //if connection is done send the datas
  57:main.c        ****        while(RxFlag_Start){ 
  58:main.c        ****             SendData();
 131              		.loc 1 58 0
 132 004a FFF7FEFF 		bl	SendData
 133              	.LVL11:
 134              	.L8:
  57:main.c        ****             SendData();
 135              		.loc 1 57 0
 136 004e 074B     		ldr	r3, .L12+16
 137 0050 1B78     		ldrb	r3, [r3]	@ zero_extendqisi2
 138 0052 13F0FF0F 		tst	r3, #255
 139 0056 F8D1     		bne	.L9
 140 0058 EAE7     		b	.L10
 141              	.L13:
 142 005a 00BF     		.align	2
 143              	.L12:
 144 005c 00000000 		.word	Custom_ISR_ADC_inter
 145 0060 00000000 		.word	Custom_ISR_RX_inter
 146 0064 00000000 		.word	PacketReadyFlag
 147 0068 00000000 		.word	.LC0
 148 006c 00000000 		.word	RxFlag_Start
 149 0070 20000000 		.word	.LC1
 150              		.cfi_endproc
 151              	.LFE65:
 152              		.size	main, .-main
 153              		.comm	RxFlag_Start,1,1
 154              		.comm	PacketReadyFlag,1,1
 155              		.comm	DataBuffer,32,4
 156              		.section	.rodata.str1.4,"aMS",%progbits,1
 157              		.align	2
 158              	.LC0:
 159 0000 55415254 		.ascii	"UART BlueThoot Module HC-06\015\012\000"
 159      20426C75 
 159      6554686F 
 159      6F74204D 
 159      6F64756C 
 160 001e 0000     		.space	2
 161              	.LC1:
 162 0020 52454144 		.ascii	"READY\015\012\000"
 162      590D0A00 
 163              		.text
 164              	.Letext0:
ARM GAS  C:\Users\gianm\AppData\Local\Temp\ccEMIfXj.s 			page 5


 165              		.file 2 "c:\\program files (x86)\\cypress\\psoc creator\\4.4\\psoc creator\\import\\gnu\\arm\\5.4.
 166              		.file 3 "c:\\program files (x86)\\cypress\\psoc creator\\4.4\\psoc creator\\import\\gnu\\arm\\5.4.
 167              		.file 4 "Generated_Source\\PSoC5/cytypes.h"
 168              		.file 5 "Generated_Source\\PSoC5/core_cm3.h"
 169              		.file 6 "interrupt_routine.h"
 170              		.file 7 "Generated_Source\\PSoC5/UART_BlueT.h"
 171              		.file 8 "Generated_Source\\PSoC5/Timer_ADC.h"
 172              		.file 9 "Generated_Source\\PSoC5/ADC_Pot.h"
 173              		.file 10 "Generated_Source\\PSoC5/isr_TimerADC_inter.h"
 174              		.file 11 "Generated_Source\\PSoC5/isr_RX_inter.h"
 175              		.file 12 "Generated_Source\\PSoC5/CyLib.h"