ARM GAS  C:\Users\gianm\AppData\Local\Temp\cc1X4rbE.s 			page 1


   1              		.syntax unified
   2              		.cpu cortex-m3
   3              		.fpu softvfp
   4              		.eabi_attribute 20, 1
   5              		.eabi_attribute 21, 1
   6              		.eabi_attribute 23, 3
   7              		.eabi_attribute 24, 1
   8              		.eabi_attribute 25, 1
   9              		.eabi_attribute 26, 1
  10              		.eabi_attribute 30, 1
  11              		.eabi_attribute 34, 1
  12              		.eabi_attribute 18, 4
  13              		.thumb
  14              		.syntax unified
  15              		.file	"untitled01.c"
  16              		.text
  17              	.Ltext0:
  18              		.cfi_sections	.debug_frame
  19              		.section	.text.SendData,"ax",%progbits
  20              		.align	2
  21              		.global	SendData
  22              		.thumb
  23              		.thumb_func
  24              		.type	SendData, %function
  25              	SendData:
  26              	.LFB64:
  27              		.file 1 "untitled01.c"
   1:untitled01.c  **** /* ========================================
   2:untitled01.c  ****  *
   3:untitled01.c  ****  * Copyright YOUR COMPANY, THE YEAR
   4:untitled01.c  ****  * All Rights Reserved
   5:untitled01.c  ****  * UNPUBLISHED, LICENSED SOFTWARE.
   6:untitled01.c  ****  *
   7:untitled01.c  ****  * CONFIDENTIAL AND PROPRIETARY INFORMATION
   8:untitled01.c  ****  * WHICH IS THE PROPERTY OF your company.
   9:untitled01.c  ****  *
  10:untitled01.c  ****  * ========================================
  11:untitled01.c  **** */
  12:untitled01.c  **** #include "project.h"
  13:untitled01.c  **** #include "stdio.h"
  14:untitled01.c  **** #include "interrupt_routine.h"
  15:untitled01.c  **** 
  16:untitled01.c  **** 
  17:untitled01.c  **** void SendData(){
  28              		.loc 1 17 0
  29              		.cfi_startproc
  30              		@ args = 0, pretend = 0, frame = 0
  31              		@ frame_needed = 0, uses_anonymous_args = 0
  32 0000 08B5     		push	{r3, lr}
  33              		.cfi_def_cfa_offset 8
  34              		.cfi_offset 3, -8
  35              		.cfi_offset 14, -4
  18:untitled01.c  ****         if(PacketReadyFlag==1){
  36              		.loc 1 18 0
  37 0002 064B     		ldr	r3, .L4
  38 0004 1B78     		ldrb	r3, [r3]	@ zero_extendqisi2
  39 0006 DBB2     		uxtb	r3, r3
ARM GAS  C:\Users\gianm\AppData\Local\Temp\cc1X4rbE.s 			page 2


  40 0008 012B     		cmp	r3, #1
  41 000a 05D1     		bne	.L1
  19:untitled01.c  ****         //instert function for usb module
  20:untitled01.c  ****         // UART_BlueT_PutString("PacketreadyFlag=1\r\n");
  21:untitled01.c  ****         UART_BlueT_PutString(DataBuffer);
  42              		.loc 1 21 0
  43 000c 0448     		ldr	r0, .L4+4
  44 000e FFF7FEFF 		bl	UART_BlueT_PutString
  45              	.LVL0:
  22:untitled01.c  ****         //reset the value Packet read to 0 
  23:untitled01.c  ****         PacketReadyFlag=0;
  46              		.loc 1 23 0
  47 0012 0022     		movs	r2, #0
  48 0014 014B     		ldr	r3, .L4
  49 0016 1A70     		strb	r2, [r3]
  50              	.L1:
  51 0018 08BD     		pop	{r3, pc}
  52              	.L5:
  53 001a 00BF     		.align	2
  54              	.L4:
  55 001c 00000000 		.word	PacketReadyFlag
  56 0020 00000000 		.word	DataBuffer
  57              		.cfi_endproc
  58              	.LFE64:
  59              		.size	SendData, .-SendData
  60              		.section	.text.CheckRX,"ax",%progbits
  61              		.align	2
  62              		.global	CheckRX
  63              		.thumb
  64              		.thumb_func
  65              		.type	CheckRX, %function
  66              	CheckRX:
  67              	.LFB65:
  24:untitled01.c  ****         }
  25:untitled01.c  ****     }
  26:untitled01.c  **** //functions to check Rx Register(useful for the application control)
  27:untitled01.c  **** 
  28:untitled01.c  **** void CheckRX(){
  68              		.loc 1 28 0
  69              		.cfi_startproc
  70              		@ args = 0, pretend = 0, frame = 0
  71              		@ frame_needed = 0, uses_anonymous_args = 0
  72 0000 08B5     		push	{r3, lr}
  73              		.cfi_def_cfa_offset 8
  74              		.cfi_offset 3, -8
  75              		.cfi_offset 14, -4
  29:untitled01.c  ****     
  30:untitled01.c  ****     if(UART_BlueT_GetByte()){
  76              		.loc 1 30 0
  77 0002 FFF7FEFF 		bl	UART_BlueT_GetByte
  78              	.LVL1:
  79 0006 10B1     		cbz	r0, .L6
  31:untitled01.c  ****         RxFlag_Start=1;
  80              		.loc 1 31 0
  81 0008 0122     		movs	r2, #1
  82 000a 014B     		ldr	r3, .L9
  83 000c 1A70     		strb	r2, [r3]
ARM GAS  C:\Users\gianm\AppData\Local\Temp\cc1X4rbE.s 			page 3


  84              	.L6:
  85 000e 08BD     		pop	{r3, pc}
  86              	.L10:
  87              		.align	2
  88              	.L9:
  89 0010 00000000 		.word	.LANCHOR0
  90              		.cfi_endproc
  91              	.LFE65:
  92              		.size	CheckRX, .-CheckRX
  93              		.global	RxFlag_Start
  94              		.comm	PacketReadyFlag,1,1
  95              		.comm	DataBuffer,32,4
  96              		.bss
  97              		.set	.LANCHOR0,. + 0
  98              		.type	RxFlag_Start, %object
  99              		.size	RxFlag_Start, 1
 100              	RxFlag_Start:
 101 0000 00       		.space	1
 102              		.text
 103              	.Letext0:
 104              		.file 2 "c:\\program files (x86)\\cypress\\psoc creator\\4.4\\psoc creator\\import\\gnu\\arm\\5.4.
 105              		.file 3 "c:\\program files (x86)\\cypress\\psoc creator\\4.4\\psoc creator\\import\\gnu\\arm\\5.4.
 106              		.file 4 "Generated_Source\\PSoC5/cytypes.h"
 107              		.file 5 "Generated_Source\\PSoC5/core_cm3.h"
 108              		.file 6 "interrupt_routine.h"
 109              		.file 7 "Generated_Source\\PSoC5/UART_BlueT.h"